target datalayout = "e-m:e-p270:32:32-p271:32:32-p272:64:64-i64:64-i128:128-f80:128-n8:16:32:64-S128"
target triple = "x86_64-pc-linux-gnu"

%struct.bio_st = type { ptr, ptr, ptr, ptr, ptr, i32, i32, i32, i32, i32, ptr, ptr, ptr, %struct.CRYPTO_REF_COUNT, i64, i64, %struct.crypto_ex_data_st }
%struct.CRYPTO_REF_COUNT = type { i32 }
%struct.crypto_ex_data_st = type { ptr, ptr }

@.str.2 = private unnamed_addr constant [32 x i8] c"../openssl/crypto/bio/bf_nbio.c\00", align 1

; Function Attrs: nounwind uwtable
define internal i32 @nbiof_free(ptr noundef %0) #0 {
  %2 = alloca i32, align 4
  %3 = alloca ptr, align 8
  store ptr %0, ptr %3, align 8, !tbaa !3
  %4 = load ptr, ptr %3, align 8, !tbaa !3
  %5 = icmp eq ptr %4, null
  br i1 %5, label %6, label %7

6:                                                ; preds = %1
  store i32 0, ptr %2, align 4
  br label %17

7:                                                ; preds = %1
  %8 = load ptr, ptr %3, align 8, !tbaa !3
  %9 = getelementptr inbounds nuw %struct.bio_st, ptr %8, i32 0, i32 10
  %10 = load ptr, ptr %9, align 8, !tbaa !20
  call void @CRYPTO_free(ptr noundef %10, ptr noundef @.str.2, i32 noundef 71)
  %11 = load ptr, ptr %3, align 8, !tbaa !3
  %12 = getelementptr inbounds nuw %struct.bio_st, ptr %11, i32 0, i32 10
  store ptr null, ptr %12, align 8, !tbaa !20
  %13 = load ptr, ptr %3, align 8, !tbaa !3
  %14 = getelementptr inbounds nuw %struct.bio_st, ptr %13, i32 0, i32 5
  store i32 0, ptr %14, align 8, !tbaa !29
  %15 = load ptr, ptr %3, align 8, !tbaa !3
  %16 = getelementptr inbounds nuw %struct.bio_st, ptr %15, i32 0, i32 7
  store i32 0, ptr %16, align 8, !tbaa !30
  store i32 1, ptr %2, align 4
  br label %17

17:                                               ; preds = %7, %6
  %18 = load i32, ptr %2, align 4
  ret i32 %18
}