; Function Attrs: nounwind uwtable
define internal range(i32 0, 2) i32 @nbiof_free(ptr noundef captures(address_is_null) %0) #2 {
  %2 = icmp eq ptr %0, null
  br i1 %2, label %8, label %3

3:                                                ; preds = %1
  %4 = getelementptr inbounds nuw i8, ptr %0, i64 64
  %5 = load ptr, ptr %4, align 8, !tbaa !17
  tail call void @CRYPTO_free(ptr noundef %5, ptr noundef nonnull @.str.2, i32 noundef 71) #5
  store ptr null, ptr %4, align 8, !tbaa !17
  %6 = getelementptr inbounds nuw i8, ptr %0, i64 40
  store i32 0, ptr %6, align 8, !tbaa !22
  %7 = getelementptr inbounds nuw i8, ptr %0, i64 48
  store i32 0, ptr %7, align 8, !tbaa !23
  br label %8

8:                                                ; preds = %1, %3
  %.0 = phi i32 [ 1, %3 ], [ 0, %1 ]
  ret i32 %.0
}